; Function Attrs: mustprogress uwtable
define void @_ZN10open_spiel6garnet11GarnetState19DistributionSupportB5cxx11Ev(ptr dead_on_unwind noalias nonnull writable sret(%"class.std::vector.31") align 8 %0, ptr nocapture noundef nonnull readonly align 8 dereferenceable(248) %1) unnamed_addr #3 align 2 personality ptr @__gxx_personality_v0 {
  %3 = alloca %"class.std::__cxx11::basic_string", align 8
  tail call void @llvm.memset.p0.i64(ptr noundef nonnull align 8 dereferenceable(24) %0, i8 0, i64 24, i1 false)
  %4 = getelementptr inbounds nuw i8, ptr %1, i64 60
  %5 = load i32, ptr %4, align 4
  %6 = sext i32 %5 to i64
  invoke void @_ZNSt6vectorINSt7__cxx1112basic_stringIcSt11char_traitsIcESaIcEEESaIS5_EE7reserveEm(ptr noundef nonnull align 8 dereferenceable(24) %0, i64 noundef %6)
          to label %.preheader unwind label %.loopexit.split-lp

.preheader:                                       ; preds = %2
  %7 = load i32, ptr %4, align 4
  %8 = icmp sgt i32 %7, 0
  br i1 %8, label %.lr.ph, label %._crit_edge

.lr.ph:                                           ; preds = %.preheader
  %9 = getelementptr inbounds nuw i8, ptr %1, i64 108
  %10 = getelementptr inbounds nuw i8, ptr %1, i64 112
  %11 = getelementptr inbounds nuw i8, ptr %0, i64 8
  %12 = getelementptr inbounds nuw i8, ptr %0, i64 16
  br label %13

13:                                               ; preds = %.lr.ph, %_ZNSt6vectorINSt7__cxx1112basic_stringIcSt11char_traitsIcESaIcEEESaIS5_EE9push_backEOS5_.exit
  %.09 = phi i32 [ 0, %.lr.ph ], [ %24, %_ZNSt6vectorINSt7__cxx1112basic_stringIcSt11char_traitsIcESaIcEEESaIS5_EE9push_backEOS5_.exit ]
  %14 = load i32, ptr %9, align 4
  %15 = load i32, ptr %10, align 8
  %16 = sext i32 %15 to i64
  invoke fastcc void @_ZN10open_spiel6garnet12_GLOBAL__N_113StateToStringB5cxx11Eiilib(ptr dead_on_unwind noalias nonnull writable align 8 %3, i32 noundef %.09, i32 noundef %14, i64 noundef %16, i32 noundef -5, i1 noundef zeroext false)
          to label %17 unwind label %.loopexit

17:                                               ; preds = %13
  %18 = load ptr, ptr %11, align 8
  %19 = load ptr, ptr %12, align 8
  %.not.i.i = icmp eq ptr %18, %19
  br i1 %.not.i.i, label %23, label %20

20:                                               ; preds = %17
  call void @_ZNSt7__cxx1112basic_stringIcSt11char_traitsIcESaIcEEC1EOS4_(ptr noundef nonnull align 8 dereferenceable(32) %18, ptr noundef nonnull align 8 dereferenceable(32) %3) #26
  %21 = load ptr, ptr %11, align 8
  %22 = getelementptr inbounds i8, ptr %21, i64 32
  store ptr %22, ptr %11, align 8
  br label %_ZNSt6vectorINSt7__cxx1112basic_stringIcSt11char_traitsIcESaIcEEESaIS5_EE9push_backEOS5_.exit

23:                                               ; preds = %17
  invoke void @_ZNSt6vectorINSt7__cxx1112basic_stringIcSt11char_traitsIcESaIcEEESaIS5_EE17_M_realloc_insertIJS5_EEEvN9__gnu_cxx17__normal_iteratorIPS5_S7_EEDpOT_(ptr noundef nonnull align 8 dereferenceable(24) %0, ptr %18, ptr noundef nonnull align 8 dereferenceable(32) %3)
          to label %_ZNSt6vectorINSt7__cxx1112basic_stringIcSt11char_traitsIcESaIcEEESaIS5_EE9push_backEOS5_.exit unwind label %27

_ZNSt6vectorINSt7__cxx1112basic_stringIcSt11char_traitsIcESaIcEEESaIS5_EE9push_backEOS5_.exit: ; preds = %20, %23
  call void @_ZNSt7__cxx1112basic_stringIcSt11char_traitsIcESaIcEED1Ev(ptr noundef nonnull align 8 dereferenceable(32) %3) #26
  %24 = add nuw nsw i32 %.09, 1
  %25 = load i32, ptr %4, align 4
  %26 = icmp slt i32 %24, %25
  br i1 %26, label %13, label %._crit_edge, !llvm.loop !37

.loopexit:                                        ; preds = %13
  %lpad.loopexit = landingpad { ptr, i32 }
          cleanup
  br label %29

.loopexit.split-lp:                               ; preds = %2
  %lpad.loopexit.split-lp = landingpad { ptr, i32 }
          cleanup
  br label %29

27:                                               ; preds = %23
  %28 = landingpad { ptr, i32 }
          cleanup
  call void @_ZNSt7__cxx1112basic_stringIcSt11char_traitsIcESaIcEED1Ev(ptr noundef nonnull align 8 dereferenceable(32) %3) #26
  br label %29

._crit_edge:                                      ; preds = %_ZNSt6vectorINSt7__cxx1112basic_stringIcSt11char_traitsIcESaIcEEESaIS5_EE9push_backEOS5_.exit, %.preheader
  ret void

29:                                               ; preds = %.loopexit, %.loopexit.split-lp, %27
  %.pn = phi { ptr, i32 } [ %28, %27 ], [ %lpad.loopexit, %.loopexit ], [ %lpad.loopexit.split-lp, %.loopexit.split-lp ]
  call void @_ZNSt6vectorINSt7__cxx1112basic_stringIcSt11char_traitsIcESaIcEEESaIS5_EED2Ev(ptr noundef nonnull align 8 dereferenceable(24) %0) #26
  resume { ptr, i32 } %.pn
}